; Function Attrs: nounwind uwtable
define dso_local ptr @list_concat_unique(ptr noundef %0, ptr noundef readonly captures(address_is_null) %1) local_unnamed_addr #0 {
  %3 = getelementptr inbounds nuw i8, ptr %1, i64 4
  %.not = icmp eq ptr %1, null
  br i1 %.not, label %._crit_edge, label %.lr.ph

.lr.ph:                                           ; preds = %2
  %4 = getelementptr inbounds nuw i8, ptr %1, i64 16
  %5 = load i32, ptr %3, align 4
  %6 = icmp sgt i32 %5, 0
  br i1 %6, label %.lr.ph23, label %._crit_edge

._crit_edge:                                      ; preds = %list_member.exit, %.lr.ph, %2
  %.0.lcssa = phi ptr [ %0, %2 ], [ %0, %.lr.ph ], [ %.1, %list_member.exit ]
  ret ptr %.0.lcssa

.lr.ph23:                                         ; preds = %.lr.ph, %list_member.exit
  %indvars.iv = phi i64 [ %indvars.iv.next, %list_member.exit ], [ 0, %.lr.ph ]
  %.01721 = phi ptr [ %.1, %list_member.exit ], [ %0, %.lr.ph ]
  %7 = load ptr, ptr %4, align 8
  %8 = getelementptr inbounds nuw %union.ListCell, ptr %7, i64 %indvars.iv
  %9 = load ptr, ptr %8, align 8
  %10 = getelementptr inbounds nuw i8, ptr %.01721, i64 4
  %.not.i = icmp eq ptr %.01721, null
  br i1 %.not.i, label %.loopexit, label %.lr.ph.i

.lr.ph.i:                                         ; preds = %.lr.ph23
  %11 = getelementptr inbounds nuw i8, ptr %.01721, i64 16
  %12 = load i32, ptr %10, align 4
  %13 = icmp sgt i32 %12, 0
  br i1 %13, label %.lr.ph23.i, label %.loopexit

14:                                               ; preds = %.lr.ph23.i
  %indvars.iv.next.i = add nuw nsw i64 %indvars.iv.i, 1
  %15 = load i32, ptr %10, align 4
  %16 = sext i32 %15 to i64
  %17 = icmp slt i64 %indvars.iv.next.i, %16
  br i1 %17, label %.lr.ph23.i, label %.loopexit.loopexit

.lr.ph23.i:                                       ; preds = %.lr.ph.i, %14
  %indvars.iv.i = phi i64 [ %indvars.iv.next.i, %14 ], [ 0, %.lr.ph.i ]
  %18 = load ptr, ptr %11, align 8
  %19 = getelementptr inbounds nuw %union.ListCell, ptr %18, i64 %indvars.iv.i
  %20 = load ptr, ptr %19, align 8
  %21 = tail call zeroext i1 @equal(ptr noundef %20, ptr noundef %9) #9
  br i1 %21, label %list_member.exit, label %14

.loopexit.loopexit:                               ; preds = %14
  %.pre = load ptr, ptr %8, align 8
  br label %.loopexit

.loopexit:                                        ; preds = %.loopexit.loopexit, %.lr.ph23, %.lr.ph.i
  %22 = phi ptr [ %.pre, %.loopexit.loopexit ], [ %9, %.lr.ph23 ], [ %9, %.lr.ph.i ]
  %23 = tail call ptr @lappend(ptr noundef %.01721, ptr noundef %22)
  br label %list_member.exit

list_member.exit:                                 ; preds = %.lr.ph23.i, %.loopexit
  %.1 = phi ptr [ %23, %.loopexit ], [ %.01721, %.lr.ph23.i ]
  %indvars.iv.next = add nuw nsw i64 %indvars.iv, 1
  %24 = load i32, ptr %3, align 4
  %25 = sext i32 %24 to i64
  %26 = icmp slt i64 %indvars.iv.next, %25
  br i1 %26, label %.lr.ph23, label %._crit_edge
}